ccopy_reg
_reconstructor
p1
(csklearn.linear_model.logistic
LogisticRegression
p2
c__builtin__
object
p3
NtRp4
(dp5
S'warm_start'
p6
I00
sS'C'
F1
sS'classes_'
p7
cnumpy.core.multiarray
_reconstruct
p8
(cnumpy
ndarray
p9
(I0
tS'b'
tRp10
(I1
(I2
tcnumpy
dtype
p11
(S'b1'
I0
I1
tRp12
(I3
S'|'
NNNI-1
I-1
I0
tbI00
S'\x00\x01'
tbsS'n_jobs'
p13
I1
sS'verbose'
p14
I0
sS'fit_intercept'
p15
I01
sS'max_iter'
p16
I100
sS'class_weight'
p17
NsS'n_iter_'
p18
g8
(g9
(I0
tS'b'
tRp19
(I1
(I1
tg11
(S'i4'
I0
I1
tRp20
(I3
S'<'
NNNI-1
I-1
I0
tbI00
S'\x08\x00\x00\x00'
tbsS'intercept_'
p21
g8
(g9
(I0
tS'b'
tRp22
(I1
(I1
tg11
(S'f8'
I0
I1
tRp23
(I3
S'<'
NNNI-1
I-1
I0
tbI00
S'H\x8f\xf8^X\x9a\xfd?'
tbsS'penalty'
p24
S'l2'
p25
sS'multi_class'
p26
S'ovr'
p27
sS'random_state'
p28
NsS'_sklearn_version'
p29
S'0.18'
p30
sS'dual'
p31
I00
sS'tol'
p32
F0.0001
sS'coef_'
p33
g8
(g9
(I0
tS'b'
tRp34
(I1
(I1
I11
tg23
I01
S"\n\xd4\xf95\x8d\xd2\r@P\x1e`\x0e`\xad\xfe\xbfp\xact\xbc\xe1,\xfc\xbf\xc5\x01g~\xf6\x15\xf7?\x0c!\xb6\xe9-\xaa\xf2?TJ\x15\xf0J3\x0b\xc0!\x8a'8\xf6\xd9\xe3\xbf.\xcf\x01Q\xf0M\xeb\xbf]O\xea\xd0K<\xfa\xbff\x10\x1b\xa7\xdc\x17\xd9\xbf\xdfWB\x11\x82\xc5\xf7\xbf"
tbsS'solver'
p35
S'liblinear'
p36
sS'intercept_scaling'
p37
I1
sb.