ccopy_reg
_reconstructor
p1
(csklearn.linear_model.logistic
LogisticRegression
p2
c__builtin__
object
p3
NtRp4
(dp5
S'warm_start'
p6
I00
sS'C'
F1
sS'classes_'
p7
cnumpy.core.multiarray
_reconstruct
p8
(cnumpy
ndarray
p9
(I0
tS'b'
tRp10
(I1
(I2
tcnumpy
dtype
p11
(S'b1'
I0
I1
tRp12
(I3
S'|'
NNNI-1
I-1
I0
tbI00
S'\x00\x01'
tbsS'n_jobs'
p13
I1
sS'verbose'
p14
I0
sS'fit_intercept'
p15
I01
sS'max_iter'
p16
I100
sS'class_weight'
p17
NsS'n_iter_'
p18
g8
(g9
(I0
tS'b'
tRp19
(I1
(I1
tg11
(S'i4'
I0
I1
tRp20
(I3
S'<'
NNNI-1
I-1
I0
tbI00
S'\x08\x00\x00\x00'
tbsS'intercept_'
p21
g8
(g9
(I0
tS'b'
tRp22
(I1
(I1
tg11
(S'f8'
I0
I1
tRp23
(I3
S'<'
NNNI-1
I-1
I0
tbI00
S'\xf2\xd7\xb3vQb\xfc?'
tbsS'penalty'
p24
S'l2'
p25
sS'multi_class'
p26
S'ovr'
p27
sS'random_state'
p28
NsS'_sklearn_version'
p29
S'0.18.1'
p30
sS'dual'
p31
I00
sS'tol'
p32
F0.0001
sS'coef_'
p33
g8
(g9
(I0
tS'b'
tRp34
(I1
(I1
I11
tg23
I01
S'x\x1d\xf4\r-\xb5\r@\x15\x97+\xde+\xc6\xfa\xbfx\xf1\xda\x82\x1fA\xfb\xbf\xc5D\xe5\x83\xa6\x05\xf4?\x05\xe7\xd0:\x1e\x04\xf4?\xea,\x08AC^\n\xc0\xab)\xeal\xeb\x16\xe1\xbf\xf3\x9a\x07o#\xdc\xe9\xbf\x80c:\x8c\x92\x0b\xfb\xbfXJI\xe1\xd5E\xdf\xbf\xe7\x1b\r\xaf\n\xd7\xfa\xbf'
tbsS'solver'
p35
S'liblinear'
p36
sS'intercept_scaling'
p37
I1
sb.